target datalayout = "e-m:e-p270:32:32-p271:32:32-p272:64:64-i64:64-i128:128-f80:128-n8:16:32:64-S128"
target triple = "x86_64-pc-linux-gnu"

%struct.b2ShapeId = type { i32, i16, i16 }
%struct.b2Vec2 = type { float, float }
%struct.b2ChainShapeArray = type { ptr, i32, i32 }
%struct.b2ShapeArray = type { ptr, i32, i32 }
%struct.b2Filter = type { i64, i64, i32 }
%struct.b2Shape = type { i32, i32, i32, i32, i32, i32, float, float, float, float, float, i32, %struct.b2AABB, %struct.b2AABB, %struct.b2Vec2, i32, %struct.b2Filter, ptr, i32, %union.anon.0, i16, i8, i8, i8, i8 }
%struct.b2AABB = type { %struct.b2Vec2, %struct.b2Vec2 }
%union.anon.0 = type { %struct.b2Polygon }
%struct.b2Polygon = type { [8 x %struct.b2Vec2], [8 x %struct.b2Vec2], %struct.b2Vec2, float, i32 }
%struct.b2World = type { %struct.b2ArenaAllocator, %struct.b2BroadPhase, %struct.b2ConstraintGraph, %struct.b2IdPool, %struct.b2BodyArray, %struct.b2IdPool, %struct.b2SolverSetArray, %struct.b2IdPool, %struct.b2JointArray, %struct.b2IdPool, %struct.b2ContactArray, %struct.b2IdPool, %struct.b2IslandArray, %struct.b2IdPool, %struct.b2IdPool, %struct.b2ShapeArray, %struct.b2ChainShapeArray, %struct.b2SensorArray, %struct.b2TaskContextArray, %struct.b2SensorTaskContextArray, %struct.b2BodyMoveEventArray, %struct.b2SensorBeginTouchEventArray, %struct.b2ContactBeginTouchEventArray, [2 x %struct.b2SensorEndTouchEventArray], [2 x %struct.b2ContactEndTouchEventArray], i32, %struct.b2ContactHitEventArray, %struct.b2BitSet, %struct.b2BitSet, %struct.b2BitSet, i64, i32, %struct.b2Vec2, float, float, float, float, float, float, float, float, ptr, ptr, i16, %struct.b2Profile, ptr, ptr, ptr, ptr, i32, ptr, ptr, ptr, ptr, ptr, float, i32, i32, i16, i8, i8, i8, i8, i8, i8 }
%struct.b2ArenaAllocator = type { ptr, i32, i32, i32, i32, %struct.b2ArenaEntryArray }
%struct.b2ArenaEntryArray = type { ptr, i32, i32 }
%struct.b2BroadPhase = type { [3 x %struct.b2DynamicTree], i32, %struct.b2HashSet, %struct.b2IntArray, ptr, ptr, i32, %struct.b2AtomicInt, %struct.b2HashSet }
%struct.b2DynamicTree = type { ptr, i32, i32, i32, i32, i32, ptr, ptr, ptr, ptr, i32 }
%struct.b2IntArray = type { ptr, i32, i32 }
%struct.b2AtomicInt = type { i32 }
%struct.b2HashSet = type { ptr, i32, i32 }
%struct.b2ConstraintGraph = type { [12 x %struct.b2GraphColor] }
%struct.b2GraphColor = type { %struct.b2BitSet, %struct.b2ContactSimArray, %struct.b2JointSimArray, %union.anon }
%struct.b2ContactSimArray = type { ptr, i32, i32 }
%struct.b2JointSimArray = type { ptr, i32, i32 }
%union.anon = type { ptr }
%struct.b2BodyArray = type { ptr, i32, i32 }
%struct.b2SolverSetArray = type { ptr, i32, i32 }
%struct.b2JointArray = type { ptr, i32, i32 }
%struct.b2ContactArray = type { ptr, i32, i32 }
%struct.b2IslandArray = type { ptr, i32, i32 }
%struct.b2IdPool = type { %struct.b2IntArray, i32 }
%struct.b2SensorArray = type { ptr, i32, i32 }
%struct.b2TaskContextArray = type { ptr, i32, i32 }
%struct.b2SensorTaskContextArray = type { ptr, i32, i32 }
%struct.b2BodyMoveEventArray = type { ptr, i32, i32 }
%struct.b2SensorBeginTouchEventArray = type { ptr, i32, i32 }
%struct.b2ContactBeginTouchEventArray = type { ptr, i32, i32 }
%struct.b2SensorEndTouchEventArray = type { ptr, i32, i32 }
%struct.b2ContactEndTouchEventArray = type { ptr, i32, i32 }
%struct.b2ContactHitEventArray = type { ptr, i32, i32 }
%struct.b2BitSet = type { ptr, i32, i32 }
%struct.b2Profile = type { float, float, float, float, float, float, float, float, float, float, float, float, float, float, float, float, float, float, float, float, float, float }
%struct.b2Sensor = type { %struct.b2ShapeRefArray, %struct.b2ShapeRefArray, i32 }
%struct.b2ShapeRefArray = type { ptr, i32, i32 }
%struct.b2ShapeRef = type { i32, i16 }

; Function Attrs: inlinehint nounwind uwtable
define internal ptr @b2ShapeArray_Get(ptr noundef %0, i32 noundef %1) #7 {
  %3 = alloca ptr, align 8
  %4 = alloca i32, align 4
  store ptr %0, ptr %3, align 8, !tbaa !12
  store i32 %1, ptr %4, align 4, !tbaa !3
  %5 = load ptr, ptr %3, align 8, !tbaa !12
  %6 = getelementptr inbounds nuw %struct.b2ShapeArray, ptr %5, i32 0, i32 0
  %7 = load ptr, ptr %6, align 8, !tbaa !14
  %8 = load i32, ptr %4, align 4, !tbaa !3
  %9 = sext i32 %8 to i64
  %10 = getelementptr inbounds %struct.b2Shape, ptr %7, i64 %9
  ret ptr %10
}

; Function Attrs: inlinehint nounwind uwtable
define internal i32 @b2MinInt(i32 noundef %0, i32 noundef %1) #7 {
  %3 = alloca i32, align 4
  %4 = alloca i32, align 4
  store i32 %0, ptr %3, align 4, !tbaa !3
  store i32 %1, ptr %4, align 4, !tbaa !3
  %5 = load i32, ptr %3, align 4, !tbaa !3
  %6 = load i32, ptr %4, align 4, !tbaa !3
  %7 = icmp slt i32 %5, %6
  br i1 %7, label %8, label %10

8:                                                ; preds = %2
  %9 = load i32, ptr %3, align 4, !tbaa !3
  br label %12

10:                                               ; preds = %2
  %11 = load i32, ptr %4, align 4, !tbaa !3
  br label %12

12:                                               ; preds = %10, %8
  %13 = phi i32 [ %9, %8 ], [ %11, %10 ]
  ret i32 %13
}

; Function Attrs: inlinehint nounwind uwtable
define internal ptr @b2SensorArray_Get(ptr noundef %0, i32 noundef %1) #7 {
  %3 = alloca ptr, align 8
  %4 = alloca i32, align 4
  store ptr %0, ptr %3, align 8, !tbaa !12
  store i32 %1, ptr %4, align 4, !tbaa !3
  %5 = load ptr, ptr %3, align 8, !tbaa !12
  %6 = getelementptr inbounds nuw %struct.b2SensorArray, ptr %5, i32 0, i32 0
  %7 = load ptr, ptr %6, align 8, !tbaa !295
  %8 = load i32, ptr %4, align 4, !tbaa !3
  %9 = sext i32 %8 to i64
  %10 = getelementptr inbounds %struct.b2Sensor, ptr %7, i64 %9
  ret ptr %10
}

; Function Attrs: nounwind uwtable
define internal ptr @b2GetShape(ptr noundef %0, i64 %1) #0 {
  %3 = alloca %struct.b2ShapeId, align 4
  %4 = alloca ptr, align 8
  %5 = alloca i32, align 4
  %6 = alloca ptr, align 8
  store i64 %1, ptr %3, align 4
  store ptr %0, ptr %4, align 8, !tbaa !26
  call void @llvm.lifetime.start.p0(i64 4, ptr %5) #9
  %7 = getelementptr inbounds nuw %struct.b2ShapeId, ptr %3, i32 0, i32 0
  %8 = load i32, ptr %7, align 4, !tbaa !28
  %9 = sub nsw i32 %8, 1
  store i32 %9, ptr %5, align 4, !tbaa !3
  call void @llvm.lifetime.start.p0(i64 8, ptr %6) #9
  %10 = load ptr, ptr %4, align 8, !tbaa !26
  %11 = getelementptr inbounds nuw %struct.b2World, ptr %10, i32 0, i32 15
  %12 = load i32, ptr %5, align 4, !tbaa !3
  %13 = call ptr @b2ShapeArray_Get(ptr noundef %11, i32 noundef %12)
  store ptr %13, ptr %6, align 8, !tbaa !34
  %14 = load ptr, ptr %6, align 8, !tbaa !34
  call void @llvm.lifetime.end.p0(i64 8, ptr %6) #9
  call void @llvm.lifetime.end.p0(i64 4, ptr %5) #9
  ret ptr %14
}

; Function Attrs: nounwind uwtable
define i32 @b2Shape_GetSensorOverlaps(i64 %0, ptr noundef %1, i32 noundef %2) #0 {
  %4 = alloca i32, align 4
  %5 = alloca %struct.b2ShapeId, align 4
  %6 = alloca ptr, align 8
  %7 = alloca i32, align 4
  %8 = alloca ptr, align 8
  %9 = alloca i32, align 4
  %10 = alloca ptr, align 8
  %11 = alloca ptr, align 8
  %12 = alloca i32, align 4
  %13 = alloca ptr, align 8
  %14 = alloca i32, align 4
  %15 = alloca %struct.b2ShapeId, align 4
  store i64 %0, ptr %5, align 4
  store ptr %1, ptr %6, align 8, !tbaa !229
  store i32 %2, ptr %7, align 4, !tbaa !3
  call void @llvm.lifetime.start.p0(i64 8, ptr %8) #9
  %16 = getelementptr inbounds nuw %struct.b2ShapeId, ptr %5, i32 0, i32 1
  %17 = load i16, ptr %16, align 4, !tbaa !30
  %18 = zext i16 %17 to i32
  %19 = call ptr @b2GetWorldLocked(i32 noundef %18)
  store ptr %19, ptr %8, align 8, !tbaa !26
  %20 = load ptr, ptr %8, align 8, !tbaa !26
  %21 = icmp eq ptr %20, null
  br i1 %21, label %22, label %23

22:                                               ; preds = %3
  store i32 0, ptr %4, align 4
  store i32 1, ptr %9, align 4
  br label %83

23:                                               ; preds = %3
  call void @llvm.lifetime.start.p0(i64 8, ptr %10) #9
  %24 = load ptr, ptr %8, align 8, !tbaa !26
  %25 = load i64, ptr %5, align 4
  %26 = call ptr @b2GetShape(ptr noundef %24, i64 %25)
  store ptr %26, ptr %10, align 8, !tbaa !34
  %27 = load ptr, ptr %10, align 8, !tbaa !34
  %28 = getelementptr inbounds nuw %struct.b2Shape, ptr %27, i32 0, i32 4
  %29 = load i32, ptr %28, align 8, !tbaa !82
  %30 = icmp eq i32 %29, -1
  br i1 %30, label %31, label %32

31:                                               ; preds = %23
  store i32 0, ptr %4, align 4
  store i32 1, ptr %9, align 4
  br label %82

32:                                               ; preds = %23
  call void @llvm.lifetime.start.p0(i64 8, ptr %11) #9
  %33 = load ptr, ptr %8, align 8, !tbaa !26
  %34 = getelementptr inbounds nuw %struct.b2World, ptr %33, i32 0, i32 17
  %35 = load ptr, ptr %10, align 8, !tbaa !34
  %36 = getelementptr inbounds nuw %struct.b2Shape, ptr %35, i32 0, i32 4
  %37 = load i32, ptr %36, align 8, !tbaa !82
  %38 = call ptr @b2SensorArray_Get(ptr noundef %34, i32 noundef %37)
  store ptr %38, ptr %11, align 8, !tbaa !83
  call void @llvm.lifetime.start.p0(i64 4, ptr %12) #9
  %39 = load ptr, ptr %11, align 8, !tbaa !83
  %40 = getelementptr inbounds nuw %struct.b2Sensor, ptr %39, i32 0, i32 1
  %41 = getelementptr inbounds nuw %struct.b2ShapeRefArray, ptr %40, i32 0, i32 1
  %42 = load i32, ptr %41, align 8, !tbaa !85
  %43 = load i32, ptr %7, align 4, !tbaa !3
  %44 = call i32 @b2MinInt(i32 noundef %42, i32 noundef %43)
  store i32 %44, ptr %12, align 4, !tbaa !3
  call void @llvm.lifetime.start.p0(i64 8, ptr %13) #9
  %45 = load ptr, ptr %11, align 8, !tbaa !83
  %46 = getelementptr inbounds nuw %struct.b2Sensor, ptr %45, i32 0, i32 1
  %47 = getelementptr inbounds nuw %struct.b2ShapeRefArray, ptr %46, i32 0, i32 0
  %48 = load ptr, ptr %47, align 8, !tbaa !89
  store ptr %48, ptr %13, align 8, !tbaa !90
  call void @llvm.lifetime.start.p0(i64 4, ptr %14) #9
  store i32 0, ptr %14, align 4, !tbaa !3
  br label %49

49:                                               ; preds = %77, %32
  %50 = load i32, ptr %14, align 4, !tbaa !3
  %51 = load i32, ptr %12, align 4, !tbaa !3
  %52 = icmp slt i32 %50, %51
  br i1 %52, label %54, label %53

53:                                               ; preds = %49
  store i32 2, ptr %9, align 4
  call void @llvm.lifetime.end.p0(i64 4, ptr %14) #9
  br label %80

54:                                               ; preds = %49
  %55 = load ptr, ptr %6, align 8, !tbaa !229
  %56 = load i32, ptr %14, align 4, !tbaa !3
  %57 = sext i32 %56 to i64
  %58 = getelementptr inbounds %struct.b2ShapeId, ptr %55, i64 %57
  %59 = getelementptr inbounds nuw %struct.b2ShapeId, ptr %15, i32 0, i32 0
  %60 = load ptr, ptr %13, align 8, !tbaa !90
  %61 = load i32, ptr %14, align 4, !tbaa !3
  %62 = sext i32 %61 to i64
  %63 = getelementptr inbounds %struct.b2ShapeRef, ptr %60, i64 %62
  %64 = getelementptr inbounds nuw %struct.b2ShapeRef, ptr %63, i32 0, i32 0
  %65 = load i32, ptr %64, align 4, !tbaa !130
  %66 = add nsw i32 %65, 1
  store i32 %66, ptr %59, align 4, !tbaa !28
  %67 = getelementptr inbounds nuw %struct.b2ShapeId, ptr %15, i32 0, i32 1
  %68 = getelementptr inbounds nuw %struct.b2ShapeId, ptr %5, i32 0, i32 1
  %69 = load i16, ptr %68, align 4, !tbaa !30
  store i16 %69, ptr %67, align 4, !tbaa !30
  %70 = getelementptr inbounds nuw %struct.b2ShapeId, ptr %15, i32 0, i32 2
  %71 = load ptr, ptr %13, align 8, !tbaa !90
  %72 = load i32, ptr %14, align 4, !tbaa !3
  %73 = sext i32 %72 to i64
  %74 = getelementptr inbounds %struct.b2ShapeRef, ptr %71, i64 %73
  %75 = getelementptr inbounds nuw %struct.b2ShapeRef, ptr %74, i32 0, i32 1
  %76 = load i16, ptr %75, align 4, !tbaa !132
  store i16 %76, ptr %70, align 2, !tbaa !31
  call void @llvm.memcpy.p0.p0.i64(ptr align 4 %58, ptr align 4 %15, i64 8, i1 false), !tbaa.struct !61
  br label %77

77:                                               ; preds = %54
  %78 = load i32, ptr %14, align 4, !tbaa !3
  %79 = add nsw i32 %78, 1
  store i32 %79, ptr %14, align 4, !tbaa !3
  br label %49, !llvm.loop !296

80:                                               ; preds = %53
  %81 = load i32, ptr %12, align 4, !tbaa !3
  store i32 %81, ptr %4, align 4
  store i32 1, ptr %9, align 4
  call void @llvm.lifetime.end.p0(i64 8, ptr %13) #9
  call void @llvm.lifetime.end.p0(i64 4, ptr %12) #9
  call void @llvm.lifetime.end.p0(i64 8, ptr %11) #9
  br label %82

82:                                               ; preds = %80, %31
  call void @llvm.lifetime.end.p0(i64 8, ptr %10) #9
  br label %83

83:                                               ; preds = %82, %22
  call void @llvm.lifetime.end.p0(i64 8, ptr %8) #9
  %84 = load i32, ptr %4, align 4
  ret i32 %84
}