; Function Attrs: nounwind uwtable
define noundef i32 @b2Shape_GetSensorOverlaps(i64 %0, ptr noundef writeonly captures(none) %1, i32 noundef %2) local_unnamed_addr #0 {
  %.sroa.218.0.extract.shift = lshr i64 %0, 32
  %.sroa.218.0.extract.trunc = trunc i64 %.sroa.218.0.extract.shift to i16
  %4 = trunc nuw i64 %.sroa.218.0.extract.shift to i32
  %5 = and i32 %4, 65535
  %6 = tail call ptr @b2GetWorldLocked(i32 noundef %5) #10
  %7 = icmp eq ptr %6, null
  br i1 %7, label %.loopexit, label %8

8:                                                ; preds = %3
  %9 = getelementptr i8, ptr %6, i64 1256
  %.val = load ptr, ptr %9, align 8, !tbaa !14
  %10 = shl i64 %0, 32
  %sext.i = add i64 %10, -4294967296
  %11 = ashr exact i64 %sext.i, 32
  %12 = getelementptr inbounds %struct.b2Shape, ptr %.val, i64 %11, i32 4
  %13 = load i32, ptr %12, align 8, !tbaa !55
  %14 = icmp eq i32 %13, -1
  br i1 %14, label %.loopexit, label %15

15:                                               ; preds = %8
  %16 = getelementptr inbounds nuw i8, ptr %6, i64 1288
  %.val25 = load ptr, ptr %16, align 8, !tbaa !56
  %17 = sext i32 %13 to i64
  %18 = getelementptr inbounds %struct.b2Sensor, ptr %.val25, i64 %17
  %19 = getelementptr inbounds nuw i8, ptr %18, i64 16
  %20 = getelementptr inbounds nuw i8, ptr %18, i64 24
  %21 = load i32, ptr %20, align 8, !tbaa !59
  %22 = tail call noundef i32 @llvm.smin.i32(i32 %21, i32 %2)
  %23 = load ptr, ptr %19, align 8, !tbaa !67
  %24 = icmp sgt i32 %22, 0
  br i1 %24, label %.lr.ph.preheader, label %.loopexit

.lr.ph.preheader:                                 ; preds = %15
  %wide.trip.count = zext nneg i32 %22 to i64
  br label %.lr.ph

.lr.ph:                                           ; preds = %.lr.ph.preheader, %.lr.ph
  %indvars.iv = phi i64 [ 0, %.lr.ph.preheader ], [ %indvars.iv.next, %.lr.ph ]
  %25 = getelementptr inbounds nuw %struct.b2ShapeId, ptr %1, i64 %indvars.iv
  %26 = getelementptr inbounds nuw %struct.b2ShapeRef, ptr %23, i64 %indvars.iv
  %27 = load i32, ptr %26, align 4, !tbaa !105
  %28 = add nsw i32 %27, 1
  %29 = getelementptr inbounds nuw i8, ptr %26, i64 4
  %30 = load i16, ptr %29, align 4, !tbaa !107
  store i32 %28, ptr %25, align 4, !tbaa !66
  %.sroa.2.0..sroa_idx = getelementptr inbounds nuw i8, ptr %25, i64 4
  store i16 %.sroa.218.0.extract.trunc, ptr %.sroa.2.0..sroa_idx, align 4, !tbaa !195
  %.sroa.3.0..sroa_idx = getelementptr inbounds nuw i8, ptr %25, i64 6
  store i16 %30, ptr %.sroa.3.0..sroa_idx, align 2, !tbaa !195
  %indvars.iv.next = add nuw nsw i64 %indvars.iv, 1
  %exitcond.not = icmp eq i64 %indvars.iv.next, %wide.trip.count
  br i1 %exitcond.not, label %.loopexit, label %.lr.ph, !llvm.loop !230

.loopexit:                                        ; preds = %.lr.ph, %15, %8, %3
  %.0 = phi i32 [ 0, %3 ], [ 0, %8 ], [ %22, %15 ], [ %22, %.lr.ph ]
  ret i32 %.0
}